; Function Attrs: nounwind uwtable
define dso_local ptr @__archive_rb_tree_find_node_leq(ptr noundef readonly captures(none) %0, ptr noundef %1) local_unnamed_addr #1 {
  %3 = getelementptr inbounds nuw i8, ptr %0, i64 8
  %4 = load ptr, ptr %3, align 8
  %5 = getelementptr inbounds nuw i8, ptr %4, i64 8
  %6 = load ptr, ptr %5, align 8
  %.01416 = load ptr, ptr %0, align 8
  %.not17 = icmp eq ptr %.01416, null
  br i1 %.not17, label %._crit_edge, label %.lr.ph

.lr.ph:                                           ; preds = %2, %9
  %.01419 = phi ptr [ %.014, %9 ], [ %.01416, %2 ]
  %.01318 = phi ptr [ %spec.select, %9 ], [ null, %2 ]
  %7 = tail call i32 %6(ptr noundef nonnull %.01419, ptr noundef %1) #4
  %8 = icmp eq i32 %7, 0
  br i1 %8, label %._crit_edge, label %9

9:                                                ; preds = %.lr.ph
  %10 = icmp sgt i32 %7, 0
  %spec.select = select i1 %10, ptr %.01419, ptr %.01318
  %11 = zext i1 %10 to i64
  %12 = getelementptr inbounds nuw [2 x ptr], ptr %.01419, i64 0, i64 %11
  %.014 = load ptr, ptr %12, align 8
  %.not = icmp eq ptr %.014, null
  br i1 %.not, label %._crit_edge, label %.lr.ph, !llvm.loop !8

._crit_edge:                                      ; preds = %.lr.ph, %9, %2
  %.0 = phi ptr [ null, %2 ], [ %spec.select, %9 ], [ %.01419, %.lr.ph ]
  ret ptr %.0
}